(lp0
(lp1
(F0.0
F50.787944
tp2
a(F-0.005
F50.787889
tp3
a(F-0.278333
F50.830417
tp4
a(F-0.793333
F50.720444
tp5
a(F-0.917528
F50.778278
tp6
a(F-0.813333
F50.829556
tp7
a(F-1.178306
F50.84375
tp8
a(F-1.145056
F50.77125
tp9
a(F-1.480028
F50.91625
tp10
a(F-1.343333
F50.783722
tp11
a(F-1.551667
F50.70375
tp12
a(F-2.043417
F50.730444
tp13
a(F-1.952556
F50.594167
tp14
a(F-2.426694
F50.63375
tp15
a(F-2.456639
F50.512889
tp16
a(F-2.793417
F50.71625
tp17
a(F-3.360028
F50.605389
tp18
a(F-3.476694
F50.687056
tp19
a(F-3.425806
F50.606667
tp20
a(F-3.58425
F50.5375
tp21
a(F-3.4975
F50.536639
tp22
a(F-3.519222
F50.344167
tp23
a(F-3.682556
F50.425778
tp24
a(F-3.564167
F50.334194
tp25
a(F-3.643361
F50.218694
tp26
a(F-3.768333
F50.218722
tp27
a(F-3.776694
F50.278694
tp28
a(F-3.818333
F50.212917
tp29
a(F-3.935056
F50.328722
tp30
a(F-4.051694
F50.292056
tp31
a(F-4.214222
F50.397472
tp32
a(F-4.223389
F50.30875
tp33
a(F-4.316778
F50.359583
tp34
a(F-4.756722
F50.331278
tp35
a(F-4.800917
F50.218306
tp36
a(F-5.01
F50.13625
tp37
a(F-5.015833
F50.24
tp38
a(F-5.108361
F50.205389
tp39
a(F-5.040861
F50.141639
tp40
a(F-5.209194
F50.089972
tp41
a(F-5.059194
F50.049139
tp42
a(F-5.204222
F49.957083
tp43
a(F-5.490056
F50.12625
tp44
a(F-5.576694
F50.050389
tp45
a(F-5.715889
F50.061667
tp46
a(F-5.675806
F50.164167
tp47
a(F-5.436639
F50.177083
tp48
a(F-5.155889
F50.345833
tp49
a(F-5.037528
F50.547528
tp50
a(F-4.842556
F50.520028
tp51
a(F-4.937472
F50.586667
tp52
a(F-4.797583
F50.597472
tp53
a(F-4.564167
F50.780861
tp54
a(F-4.527528
F51.020778
tp55
a(F-4.343389
F50.987944
tp56
a(F-4.067556
F51.078306
tp57
a(F-4.217472
F51.074167
tp58
a(F-4.230917
F51.186639
tp59
a(F-3.785028
F51.244556
tp60
a(F-3.405028
F51.181222
tp61
a(F-3.056722
F51.177056
tp62
a(F-2.979194
F51.387472
tp63
a(F-2.68925
F51.485806
tp64
a(F-2.384139
F51.757444
tp65
a(F-2.434167
F51.810806
tp66
a(F-2.440889
F51.810833
tp67
a(F-2.711694
F51.579556
tp68
a(F-2.906722
F51.530417
tp69
a(F-2.983333
F51.582083
tp70
a(F-3.17
F51.40375
tp71
a(F-3.403417
F51.380389
tp72
a(F-3.7225
F51.479194
tp73
a(F-3.831667
F51.62875
tp74
a(F-4.306722
F51.560389
tp75
a(F-4.245083
F51.647861
tp76
a(F-4.082861
F51.658444
tp77
a(F-4.330889
F51.679111
tp78
a(F-4.335028
F51.797889
tp79
a(F-4.950056
F51.595389
tp80
a(F-5.125833
F51.679972
tp81
a(F-4.890111
F51.717139
tp82
a(F-5.09675
F51.73625
tp83
a(F-5.178361
F51.679583
tp84
a(F-5.255833
F51.735806
tp85
a(F-5.110833
F51.774194
tp86
a(F-5.127528
F51.853306
tp87
a(F-5.320833
F51.860806
tp88
a(F-5.070083
F52.032083
tp89
a(F-4.828333
F52.02125
tp90
a(F-4.731639
F52.117889
tp91
a(F-4.204167
F52.264944
tp92
a(F-4.059222
F52.531639
tp93
a(F-3.9375
F52.553333
tp94
a(F-4.130833
F52.6075
tp95
a(F-3.964167
F52.739111
tp96
a(F-4.061667
F52.722083
tp97
a(F-4.150917
F52.808361
tp98
a(F-4.058361
F52.922944
tp99
a(F-4.395056
F52.893778
tp100
a(F-4.530056
F52.777083
tp101
a(F-4.769167
F52.795
tp102
a(F-4.199167
F53.212472
tp103
a(F-3.853333
F53.296278
tp104
a(F-3.816694
F53.243722
tp105
a(F-3.876722
F53.340389
tp106
a(F-3.606694
F53.292056
tp107
a(F-3.313361
F53.356278
tp108
a(F-3.078333
F53.232917
tp109
a(F-3.205806
F53.389167
tp110
a(F-3.045056
F53.442056
tp111
a(F-2.883306
F53.292889
tp112
a(F-2.680861
F53.354972
tp113
a(F-2.890056
F53.335361
tp114
a(F-3.107556
F53.545861
tp115
a(F-2.980861
F53.695806
tp116
a(F-2.827472
F53.714972
tp117
a(F-3.030889
F53.742472
tp118
a(F-3.059194
F53.845806
tp119
a(F-3.050889
F53.921611
tp120
a(F-2.968333
F53.859556
tp121
a(F-2.999222
F53.930778
tp122
a(F-2.850833
F53.964194
tp123
a(F-2.840944
F54.044917
tp124
a(F-2.881667
F53.988722
tp125
a(F-2.925944
F54.032444
tp126
a(F-2.799278
F54.239944
tp127
a(F-2.93175
F54.147861
tp128
a(F-3.052472
F54.227472
tp129
a(F-3.151694
F54.061194
tp130
a(F-3.215833
F54.252472
tp131
a(F-3.325861
F54.189139
tp132
a(F-3.642528
F54.508333
tp133
a(F-3.404139
F54.867472
tp134
a(F-3.052556
F54.982472
tp135
a(F-3.586639
F55.007889
tp136
a(F-3.597528
F54.871639
tp137
a(F-3.823389
F54.887944
tp138
a(F-3.976667
F54.766222
tp139
a(F-4.400111
F54.916306
tp140
a(F-4.393472
F54.675389
tp141
a(F-4.856722
F54.86875
tp142
a(F-4.959167
F54.801694
tp143
a(F-4.856722
F54.63125
tp144
a(F-5.145833
F54.854944
tp145
a(F-5.170833
F55.0
tp146
a(F-5.0
F54.911833
tp147
a(F-4.999194
F55.139167
tp148
a(F-4.6225
F55.495
tp149
a(F-4.685861
F55.615806
tp150
a(F-4.909167
F55.6975
tp151
a(F-4.884194
F55.942472
tp152
a(F-4.427528
F55.903306
tp153
a(F-4.805225
F56.0546
tp154
a(F-4.767472
F55.987472
tp155
a(F-4.855917
F55.986639
tp156
a(F-4.75175
F56.207083
tp157
a(F-4.863389
F56.100417
tp158
a(F-4.917583
F56.165833
tp159
a(F-4.979222
F55.861667
tp160
a(F-5.125056
F56.008722
tp161
a(F-5.075861
F55.897528
tp162
a(F-5.193389
F55.980417
tp163
a(F-5.205917
F55.826667
tp164
a(F-5.315889
F55.851639
tp165
a(F-5.345917
F55.994944
tp166
a(F-4.923306
F56.272056
tp167
a(F-5.442528
F56.032472
tp168
a(F-5.3175
F55.773361
tp169
a(F-5.604222
F55.425833
tp170
a(F-5.5175
F55.364167
tp171
a(F-5.805861
F55.3025
tp172
a(F-5.679139
F55.6825
tp173
a(F-5.440833
F55.855778
tp174
a(F-5.61175
F55.759583
tp175
a(F-5.672528
F55.805833
tp176
a(F-5.5675
F56.039972
tp177
a(F-5.719222
F55.950806
tp178
a(F-5.530917
F56.075833
tp179
a(F-5.504167
F56.1875
tp180
a(F-5.617556
F56.131667
tp181
a(F-5.485806
F56.254972
tp182
a(F-5.599222
F56.249111
tp183
a(F-5.579222
F56.3325
tp184
a(F-5.445833
F56.3625
tp185
a(F-5.540944
F56.3575
tp186
a(F-5.464972
F56.447028
tp187
a(F-5.195028
F56.447083
tp188
a(F-5.044194
F56.565
tp189
a(F-5.201722
F56.452917
tp190
a(F-5.40675
F56.457083
tp191
a(F-5.427556
F56.529167
tp192
a(F-5.245889
F56.551639
tp193
a(F-5.415889
F56.539139
tp194
a(F-5.327556
F56.648306
tp195
a(F-5.004167
F56.712472
tp196
a(F-5.246667
F56.702111
tp197
a(F-5.089167
F56.8325
tp198
a(F-5.336667
F56.858694
tp199
a(F-5.122528
F56.824167
tp200
a(F-5.686694
F56.496194
tp201
a(F-6.007472
F56.649167
tp202
a(F-5.540056
F56.687056
tp203
a(F-6.229167
F56.725833
tp204
a(F-5.754167
F56.781639
tp205
a(F-5.859222
F56.832528
tp206
a(F-5.672556
F56.875028
tp207
a(F-5.924222
F56.889111
tp208
a(F-5.8325
F57.007444
tp209
a(F-5.509194
F56.994139
tp210
a(F-5.780806
F57.045028
tp211
a(F-5.720028
F57.118778
tp212
a(F-5.387528
F57.108306
tp213
a(F-5.6925
F57.161667
tp214
a(F-5.598333
F57.259583
tp215
a(F-5.3925
F57.2325
tp216
a(F-5.732528
F57.282528
tp217
a(F-5.548333
F57.357111
tp218
a(F-5.61
F57.415417
tp219
a(F-5.822556
F57.364139
tp220
a(F-5.842556
F57.575833
tp221
a(F-5.512528
F57.540833
tp222
a(F-5.8175
F57.639167
tp223
a(F-5.674167
F57.699972
tp224
a(F-5.8125
F57.749194
tp225
a(F-5.814222
F57.855
tp226
a(F-5.683389
F57.867889
tp227
a(F-5.618306
F57.767889
tp228
a(F-5.620056
F57.924556
tp229
a(F-5.220028
F57.842889
tp230
a(F-5.358333
F57.938694
tp231
a(F-5.072528
F57.819139
tp232
a(F-5.459194
F58.075806
tp233
a(F-5.303333
F58.065417
tp234
a(F-5.244222
F58.149139
tp235
a(F-5.378389
F58.264528
tp236
a(F-4.922556
F58.256667
tp237
a(F-5.182528
F58.352472
tp238
a(F-5.14
F58.413722
tp239
a(F-5.030917
F58.380806
tp240
a(F-5.078389
F58.452889
tp241
a(F-4.990861
F58.426639
tp242
a(F-5.125861
F58.490806
tp243
a(F-5.003361
F58.627917
tp244
a(F-4.82925
F58.598306
tp245
a(F-4.811722
F58.517028
tp246
a(F-4.793417
F58.602056
tp247
a(F-4.654222
F58.552472
tp248
a(F-4.751694
F58.447889
tp249
a(F-4.580083
F58.582889
tp250
a(F-4.436667
F58.557028
tp251
a(F-4.476694
F58.444556
tp252
a(F-4.020056
F58.60375
tp253
a(F-3.91
F58.558722
tp254
a(F-3.656694
F58.622028
tp255
a(F-3.373333
F58.594528
tp256
a(F-3.375028
F58.672889
tp257
a(F-3.022472
F58.643333
tp258
a(F-3.207556
F58.311639
tp259
a(F-4.082556
F57.957444
tp260
a(F-4.011694
F57.861222
tp261
a(F-4.355917
F57.885
tp262
a(F-4.050056
F57.815417
tp263
a(F-3.772556
F57.865028
tp264
a(F-3.976722
F57.692889
tp265
a(F-4.021694
F57.737889
tp266
a(F-4.283361
F57.68125
tp267
a(F-4.444194
F57.574944
tp268
a(F-3.996722
F57.680417
tp269
a(F-4.089194
F57.574194
tp270
a(F-4.438361
F57.486194
tp271
a(F-4.183333
F57.484583
tp272
a(F-4.058361
F57.591222
tp273
a(F-3.345028
F57.724583
tp274
a(F-3.03675
F57.665389
tp275
a(F-2.003333
F57.699583
tp276
a(F-1.819167
F57.610833
tp277
a(F-1.767583
F57.470806
tp278
a(F-1.994222
F57.330833
tp279
a(F-2.230833
F56.864111
tp280
a(F-2.539139
F56.718278
tp281
a(F-2.435861
F56.700861
tp282
a(F-2.53925
F56.566639
tp283
a(F-2.736722
F56.462083
tp284
a(F-3.377528
F56.380833
tp285
a(F-2.813361
F56.44625
tp286
a(F-2.910806
F56.353306
tp287
a(F-2.595861
F56.2675
tp288
a(F-2.811667
F56.182889
tp289
a(F-2.968389
F56.207056
tp290
a(F-3.398417
F56.007056
tp291
a(F-3.849139
F56.117472
tp292
a(F-3.683361
F56.006222
tp293
a(F-3.068389
F55.946194
tp294
a(F-2.680111
F56.061278
tp295
a(F-2.137556
F55.915806
tp296
a(F-2.029167
F55.768306
tp297
a(F-1.640806
F55.582472
tp298
a(F-1.5725
F55.165
tp299
a(F-1.175833
F54.696611
tp300
a(F-1.212556
F54.580833
tp301
a(F-1.136639
F54.64875
tp302
a(F-0.566722
F54.479528
tp303
a(F-0.364194
F54.245778
tp304
a(F-0.077528
F54.119944
tp305
a(F-0.215917
F54.025778
tp306
a(F0.0
F53.763784
tp307
a(F2.8e-05
F53.76375
tp308
a(F0.11
F53.571222
tp309
a(F0.0
F53.60344
tp310
a(F-0.103389
F53.633722
tp311
a(F-0.265028
F53.742889
tp312
a(F-0.780833
F53.695833
tp313
a(F-0.716667
F53.637083
tp314
a(F-0.61454
F53.700499
tp315
a(F-0.293417
F53.713722
tp316
a(F-0.224194
F53.650806
tp317
a(F0.0
F53.543722
tp318
a(F0.167444
F53.479194
tp319
a(F0.3575
F53.175
tp320
a(F0.0
F52.890953
tp321
a(F-0.007528
F52.884972
tp322
a(F0.0
F52.887507
tp323
a(F0.028278
F52.897028
tp324
a(F0.374917
F52.782889
tp325
a(F0.544972
F52.977056
tp326
a(F1.301611
F52.933722
tp327
a(F1.694194
F52.729972
tp328
a(F1.765806
F52.478333
tp329
a(F1.580861
F52.084944
tp330
a(F1.319944
F51.930389
tp331
a(F1.168278
F52.029583
tp332
a(F1.279139
F51.955778
tp333
a(F1.06075
F51.95
tp334
a(F1.290806
F51.946639
tp335
a(F1.235861
F51.815833
tp336
a(F1.043361
F51.767889
tp337
a(F0.969944
F51.84875
tp338
a(F0.989972
F51.784583
tp339
a(F0.6925
F51.726639
tp340
a(F0.937417
F51.743361
tp341
a(F0.860111
F51.617833
tp342
a(F0.932528
F51.590806
tp343
a(F0.254167
F51.465861
tp344
a(F0.693278
F51.473722
tp345
a(F0.524083
F51.389972
tp346
a(F0.698306
F51.379528
tp347
a(F0.749972
F51.446278
tp348
a(F0.90575
F51.414944
tp349
a(F0.906667
F51.352889
tp350
a(F0.7525
F51.3875
tp351
a(F0.896611
F51.339583
tp352
a(F1.426611
F51.392889
tp353
a(F1.394194
F51.153306
tp354
a(F1.039139
F51.048361
tp355
a(F0.975028
F50.910389
tp356
a(F0.769944
F50.933722
tp357
a(F0.24
F50.732083
tp358
a(F0.0
F50.787944
tp359
aa(lp360
(F-8.0
F51.858722
tp361
a(F-8.001667
F51.857889
tp362
a(F-8.176667
F51.783778
tp363
a(F-8.269222
F51.814194
tp364
a(F-8.174972
F51.861222
tp365
a(F-8.461667
F51.900417
tp366
a(F-8.275861
F51.7975
tp367
a(F-8.346667
F51.714611
tp368
a(F-8.535028
F51.695417
tp369
a(F-8.533361
F51.606222
tp370
a(F-8.761667
F51.643722
tp371
a(F-8.713417
F51.569556
tp372
a(F-8.885056
F51.62125
tp373
a(F-8.919972
F51.538778
tp374
a(F-9.140083
F51.562917
tp375
a(F-9.348306
F51.466222
tp376
a(F-9.324167
F51.541667
tp377
a(F-9.416667
F51.494556
tp378
a(F-9.458389
F51.560389
tp379
a(F-9.775028
F51.444583
tp380
a(F-9.8425
F51.481639
tp381
a(F-9.544167
F51.615806
tp382
a(F-9.857528
F51.540806
tp383
a(F-9.458361
F51.729556
tp384
a(F-10.164194
F51.611639
tp385
a(F-9.555861
F51.8825
tp386
a(F-10.133361
F51.73625
tp387
a(F-10.229222
F51.777472
tp388
a(F-10.188361
F51.854583
tp389
a(F-10.344972
F51.782083
tp390
a(F-10.404222
F51.843333
tp391
a(F-10.255889
F51.902472
tp392
a(F-10.260028
F51.99125
tp393
a(F-9.759194
F52.156639
tp394
a(F-10.456667
F52.092889
tp395
a(F-10.363417
F52.235417
tp396
a(F-10.181694
F52.291222
tp397
a(F-10.183333
F52.230389
tp398
a(F-10.088333
F52.247056
tp399
a(F-10.020056
F52.313722
tp400
a(F-9.958333
F52.232028
tp401
a(F-9.72425
F52.2575
tp402
a(F-9.879222
F52.274167
tp403
a(F-9.834222
F52.380778
tp404
a(F-9.949222
F52.418278
tp405
a(F-9.635
F52.469528
tp406
a(F-9.623389
F52.581222
tp407
a(F-9.478417
F52.54625
tp408
a(F-8.697556
F52.653278
tp409
a(F-8.9675
F52.684167
tp410
a(F-8.955
F52.787944
tp411
a(F-9.166667
F52.61625
tp412
a(F-9.311639
F52.586222
tp413
a(F-9.271667
F52.638722
tp414
a(F-9.414972
F52.602056
tp415
a(F-9.591667
F52.667056
tp416
a(F-9.698361
F52.58125
tp417
a(F-9.940889
F52.557472
tp418
a(F-9.495917
F52.753306
tp419
a(F-9.337528
F52.943333
tp420
a(F-9.479167
F52.940833
tp421
a(F-9.270833
F53.150833
tp422
a(F-8.930028
F53.13875
tp423
a(F-8.879167
F53.208278
tp424
a(F-9.048361
F53.215389
tp425
a(F-8.9325
F53.267528
tp426
a(F-9.035
F53.277056
tp427
a(F-9.528333
F53.219556
tp428
a(F-9.560028
F53.287056
tp429
a(F-9.61675
F53.230417
tp430
a(F-9.561639
F53.381222
tp431
a(F-9.778333
F53.29125
tp432
a(F-9.909167
F53.324167
tp433
a(F-9.841694
F53.427056
tp434
a(F-9.958389
F53.367056
tp435
a(F-10.184139
F53.408278
tp436
a(F-10.02425
F53.473306
tp437
a(F-10.191722
F53.557083
tp438
a(F-9.674167
F53.608333
tp439
a(F-9.915833
F53.6525
tp440
a(F-9.907556
F53.763361
tp441
a(F-9.550861
F53.800806
tp442
a(F-9.576722
F53.90125
tp443
a(F-9.947556
F53.870806
tp444
a(F-9.91
F53.956194
tp445
a(F-9.799222
F53.912472
tp446
a(F-9.914222
F54.033333
tp447
a(F-9.8375
F54.118306
tp448
a(F-9.979194
F54.059139
tp449
a(F-9.905806
F54.115
tp450
a(F-10.001639
F54.222917
tp451
a(F-10.128333
F54.089556
tp452
a(F-10.114222
F54.240806
tp453
a(F-10.008361
F54.302917
tp454
a(F-9.892528
F54.265
tp455
a(F-9.966667
F54.212083
tp456
a(F-9.756722
F54.249583
tp457
a(F-9.869194
F54.300833
tp458
a(F-9.785056
F54.340389
tp459
a(F-9.27175
F54.307889
tp460
a(F-9.145083
F54.137056
tp461
a(F-9.058389
F54.291222
tp462
a(F-8.518417
F54.211222
tp463
a(F-8.632556
F54.2525
tp464
a(F-8.482583
F54.274083
tp465
a(F-8.580889
F54.301639
tp466
a(F-8.510833
F54.324944
tp467
a(F-8.684194
F54.357417
tp468
a(F-8.204139
F54.4975
tp469
a(F-8.275861
F54.5225
tp470
a(F-8.115861
F54.649139
tp471
a(F-8.468417
F54.564528
tp472
a(F-8.393361
F54.632028
tp473
a(F-8.686722
F54.616194
tp474
a(F-8.810917
F54.699139
tp475
a(F-8.651778
F54.770333
tp476
a(F-8.440861
F54.754139
tp477
a(F-8.56925
F54.825778
tp478
a(F-8.315889
F54.885778
tp479
a(F-8.462583
F54.909111
tp480
a(F-8.370889
F54.946639
tp481
a(F-8.452472
F55.004139
tp482
a(F-8.275889
F55.035806
tp483
a(F-8.28925
F55.156694
tp484
a(F-8.141639
F55.119556
tp485
a(F-7.985056
F55.226194
tp486
a(F-7.856694
F55.127028
tp487
a(F-7.790083
F55.255417
tp488
a(F-7.696778
F55.098722
tp489
a(F-7.713389
F55.167889
tp490
a(F-7.755998
F55.22754
tp491
a(F-7.634278
F55.276583
tp492
a(F-7.520889
F55.124111
tp493
a(F-7.630111
F54.962056
tp494
a(F-7.457583
F55.064139
tp495
a(F-7.527583
F55.285806
tp496
a(F-7.254194
F55.279111
tp497
a(F-7.388417
F55.381222
tp498
a(F-6.922528
F55.236639
tp499
a(F-7.315028
F55.006194
tp500
a(F-7.044278
F55.0525
tp501
a(F-6.966722
F55.194583
tp502
a(F-6.141722
F55.227861
tp503
a(F-5.987528
F54.981639
tp504
a(F-5.690861
F54.806639
tp505
a(F-5.909139
F54.613306
tp506
a(F-5.581722
F54.676222
tp507
a(F-5.430889
F54.484111
tp508
a(F-5.505056
F54.329556
tp509
a(F-5.560917
F54.530028
tp510
a(F-5.682528
F54.580806
tp511
a(F-5.682556
F54.369972
tp512
a(F-5.524139
F54.309167
tp513
a(F-5.661722
F54.222056
tp514
a(F-5.820889
F54.28
tp515
a(F-5.894167
F54.103306
tp516
a(F-6.060083
F54.022861
tp517
a(F-6.278417
F54.107889
tp518
a(F-6.138361
F53.977889
tp519
a(F-6.399167
F54.013333
tp520
a(F-6.215889
F53.794167
tp521
a(F-6.339167
F53.714111
tp522
a(F-6.079139
F53.552472
tp523
a(F-6.204167
F53.4625
tp524
a(F-6.0525
F53.359167
tp525
a(F-6.232583
F53.356611
tp526
a(F-6.090861
F53.270778
tp527
a(F-5.994167
F52.9675
tp528
a(F-6.355861
F52.346667
tp529
a(F-6.507528
F52.354194
tp530
a(F-6.431722
F52.277083
tp531
a(F-6.365833
F52.334139
tp532
a(F-6.31425
F52.240833
tp533
a(F-6.361722
F52.171194
tp534
a(F-6.590056
F52.168722
tp535
a(F-6.790889
F52.203306
tp536
a(F-6.763306
F52.263722
tp537
a(F-6.926722
F52.122083
tp538
a(F-6.968333
F52.241222
tp539
a(F-7.025028
F52.13125
tp540
a(F-7.643361
F52.105444
tp541
a(F-7.539167
F52.053306
tp542
a(F-7.587528
F51.993306
tp543
a(F-7.736694
F51.937917
tp544
a(F-7.886667
F51.992917
tp545
a(F-7.869222
F51.881639
tp546
a(F-8.0
F51.858722
tp547
aa(lp548
(F-7.0
F57.960417
tp549
a(F-6.998417
F57.960389
tp550
a(F-7.11425
F57.989139
tp551
a(F-6.937556
F58.050806
tp552
a(F-7.050056
F58.036222
tp553
a(F-7.135917
F58.124167
tp554
a(F-7.049194
F58.233306
tp555
a(F-6.866694
F58.122028
tp556
a(F-6.888361
F58.260417
tp557
a(F-6.716722
F58.170389
tp558
a(F-6.805861
F58.304139
tp559
a(F-6.253361
F58.515444
tp560
a(F-6.162556
F58.343306
tp561
a(F-6.375889
F58.225
tp562
a(F-6.135833
F58.255
tp563
a(F-6.580833
F58.09
tp564
a(F-6.375917
F58.09
tp565
a(F-6.388389
F58.000389
tp566
a(F-6.580833
F58.004139
tp567
a(F-6.467556
F57.938306
tp568
a(F-6.659222
F57.922472
tp569
a(F-6.668361
F58.049583
tp570
a(F-6.755861
F58.005
tp571
a(F-6.664222
F57.881667
tp572
a(F-6.79925
F57.896611
tp573
a(F-6.735806
F57.826639
tp574
a(F-6.968361
F57.727083
tp575
a(F-7.132528
F57.836639
tp576
a(F-6.815861
F57.901639
tp577
a(F-7.0
F57.960417
tp578
aa(lp579
(F-6.0
F57.277889
tp580
a(F-5.99925
F57.277472
tp581
a(F-5.647528
F57.250778
tp582
a(F-6.016722
F57.019556
tp583
a(F-5.839194
F57.188333
tp584
a(F-5.988333
F57.168722
tp585
a(F-6.035028
F57.227083
tp586
a(F-6.083306
F57.127083
tp587
a(F-6.116722
F57.192917
tp588
a(F-6.321694
F57.161222
tp589
a(F-6.480861
F57.291639
tp590
a(F-6.428389
F57.34125
tp591
a(F-6.309222
F57.300833
tp592
a(F-6.399194
F57.36
tp593
a(F-6.536667
F57.412083
tp594
a(F-6.576694
F57.332917
tp595
a(F-6.789222
F57.421611
tp596
a(F-6.720028
F57.513722
tp597
a(F-6.5825
F57.424139
tp598
a(F-6.637528
F57.6075
tp599
a(F-6.313417
F57.457056
tp600
a(F-6.4275
F57.645806
tp601
a(F-6.297583
F57.708306
tp602
a(F-6.135889
F57.589194
tp603
a(F-6.164222
F57.298306
tp604
a(F-6.0
F57.277889
tp605
aa(lp606
(F-1.345917
F59.9975
tp607
a(F-1.346
F60.0
tp608
a(F-1.307556
F60.234972
tp609
a(F-1.432583
F60.255778
tp610
a(F-1.463389
F60.147056
tp611
a(F-1.704194
F60.290833
tp612
a(F-1.478444
F60.284556
tp613
a(F-1.475
F60.342917
tp614
a(F-1.371722
F60.287056
tp615
a(F-1.264167
F60.352472
tp616
a(F-1.464139
F60.356639
tp617
a(F-1.455
F60.491222
tp618
a(F-1.6375
F60.485806
tp619
a(F-1.53
F60.557889
tp620
a(F-1.499278
F60.543333
tp621
a(F-1.310056
F60.642083
tp622
a(F-1.380917
F60.398306
tp623
a(F-1.238389
F60.495444
tp624
a(F-1.258333
F60.399556
tp625
a(F-1.047556
F60.440833
tp626
a(F-1.184222
F60.351694
tp627
a(F-1.097611
F60.261667
tp628
a(F-1.230806
F60.230833
tp629
a(F-1.130833
F60.149972
tp630
a(F-1.273361
F59.851194
tp631
a(F-1.387583
F59.889944
tp632
a(F-1.345917
F59.9975
tp633
aa(lp634
(F-6.00175
F56.582944
tp635
a(F-6.0
F56.582889
tp636
a(F-5.6525
F56.455833
tp637
a(F-5.665833
F56.389972
tp638
a(F-5.747583
F56.410806
tp639
a(F-5.831667
F56.310389
tp640
a(F-5.890083
F56.353722
tp641
a(F-6.325
F56.26875
tp642
a(F-6.351667
F56.347056
tp643
a(F-6.207556
F56.363306
tp644
a(F-5.995861
F56.489972
tp645
a(F-6.336639
F56.532917
tp646
a(F-6.325889
F56.605
tp647
a(F-6.126722
F56.656278
tp648
a(F-6.00175
F56.582944
tp649
aa(lp650
(F-4.590889
F53.279972
tp651
a(F-4.590861
F53.281639
tp652
a(F-4.579167
F53.403333
tp653
a(F-4.43
F53.430444
tp654
a(F-4.290889
F53.416667
tp655
a(F-4.211722
F53.29625
tp656
a(F-4.040861
F53.311667
tp657
a(F-4.331179
F53.137552
tp658
a(F-4.590889
F53.279972
tp659
aa(lp660
(F-6.525806
F55.691639
tp661
a(F-6.525889
F55.696667
tp662
a(F-6.455861
F55.853333
tp663
a(F-6.328417
F55.892083
tp664
a(F-6.321694
F55.822917
tp665
a(F-6.124222
F55.937472
tp666
a(F-6.074194
F55.644139
tp667
a(F-6.337528
F55.5925
tp668
a(F-6.263389
F55.785389
tp669
a(F-6.525806
F55.691639
tp670
aa(lp671
(F-3.052528
F58.997472
tp672
a(F-3.052556
F59.0
tp673
a(F-2.799972
F58.99375
tp674
a(F-2.788417
F58.947083
tp675
a(F-2.705889
F58.973306
tp676
a(F-2.894222
F58.895833
tp677
a(F-2.923444
F58.733694
tp678
a(F-3.037528
F58.820806
tp679
a(F-2.911023
F58.844223
tp680
a(F-2.970861
F58.960806
tp681
a(F-3.180056
F58.912028
tp682
a(F-3.355917
F58.964944
tp683
a(F-3.329278
F59.135806
tp684
a(F-3.075028
F59.123722
tp685
a(F-3.052528
F58.997472
tp686
aa(lp687
(F-4.797556
F54.059944
tp688
a(F-4.797583
F54.062444
tp689
a(F-4.542639
F54.361611
tp690
a(F-4.363444
F54.416194
tp691
a(F-4.387639
F54.190778
tp692
a(F-4.621722
F54.052
tp693
a(F-4.797556
F54.059944
tp694
aa(lp695
(F-5.399222
F55.613306
tp696
a(F-5.399222
F55.625
tp697
a(F-5.197556
F55.698333
tp698
a(F-5.084139
F55.452444
tp699
a(F-5.320833
F55.465833
tp700
a(F-5.399222
F55.613306
tp701
aa(lp702
(F-1.587556
F50.661639
tp703
a(F-1.587528
F50.6625
tp704
a(F-1.313417
F50.767083
tp705
a(F-1.0725
F50.686639
tp706
a(F-1.296667
F50.572889
tp707
a(F-1.587556
F50.661639
tp708
aa(lp709
(F-6.0
F55.989611
tp710
a(F-5.999167
F55.989972
tp711
a(F-5.700889
F56.146639
tp712
a(F-5.965028
F55.791222
tp713
a(F-6.090944
F55.9
tp714
a(F-5.8525
F55.978333
tp715
a(F-6.0
F55.989611
tp716
aa(lp717
(F-7.457583
F57.240833
tp718
a(F-7.457556
F57.2425
tp719
a(F-7.33675
F57.402944
tp720
a(F-7.192472
F57.299944
tp721
a(F-7.362528
F57.244139
tp722
a(F-7.230056
F57.09625
tp723
a(F-7.397556
F57.113333
tp724
a(F-7.457583
F57.240833
tp725
aa(lp726
(F-7.550833
F57.601639
tp727
a(F-7.550806
F57.6025
tp728
a(F-7.314972
F57.694556
tp729
a(F-7.062472
F57.642472
tp730
a(F-7.215806
F57.639972
tp731
a(F-7.102528
F57.594972
tp732
a(F-7.222528
F57.563333
tp733
a(F-7.163389
F57.50875
tp734
a(F-7.550833
F57.601639
tp735
aa(lp736
(F-1.003333
F60.702056
tp737
a(F-1.0
F60.702056
tp738
a(F-1.029111
F60.497472
tp739
a(F-1.14675
F60.484556
tp740
a(F-1.207556
F60.608333
tp741
a(F-1.125
F60.72875
tp742
a(F-1.003333
F60.702056
tp743
aa(lp744
(F-3.435889
F58.873333
tp745
a(F-3.435861
F58.879167
tp746
a(F-3.32675
F58.929556
tp747
a(F-3.170917
F58.823306
tp748
a(F-3.255889
F58.788333
tp749
a(F-3.132528
F58.7875
tp750
a(F-3.291722
F58.777083
tp751
a(F-3.435889
F58.873333
tp752
aa(lp753
(F-10.0
F53.902917
tp754
a(F-10.004139
F53.905
tp755
a(F-10.259194
F53.974972
tp756
a(F-9.976694
F54.026222
tp757
a(F-10.0
F53.902917
tp758
aa(lp759
(F-5.193945
F55.885296
tp760
a(F-5.025889
F55.843278
tp761
a(F-5.008361
F55.725389
tp762
a(F-5.193945
F55.885296
tp763
aa(lp764
(F-0.984194
F60.719194
tp765
a(F-0.984222
F60.7225
tp766
a(F-0.898361
F60.844583
tp767
a(F-0.757472
F60.821667
tp768
a(F-0.833333
F60.682889
tp769
a(F-0.984194
F60.719194
tp770
aa(lp771
(F-2.252889
F49.246694
tp772
a(F-2.252889
F49.251722
tp773
a(F-2.043306
F49.242111
tp774
a(F-2.027056
F49.167556
tp775
a(F-2.247528
F49.180444
tp776
a(F-2.252889
F49.246694
tp777
aa(lp778
(F-6.237528
F56.999167
tp779
a(F-6.240889
F56.997528
tp780
a(F-6.33
F56.934583
tp781
a(F-6.455917
F57.008333
tp782
a(F-6.326722
F57.059556
tp783
a(F-6.237528
F56.999167
tp784
aa(lp785
(F-6.999222
F56.504167
tp786
a(F-6.99925
F56.505806
tp787
a(F-6.725889
F56.538306
tp788
a(F-6.913417
F56.439583
tp789
a(F-6.999222
F56.504167
tp790
aa(lp791
(F-7.414222
F57.464167
tp792
a(F-7.414167
F57.464972
tp793
a(F-7.241694
F57.476278
tp794
a(F-7.204194
F57.415833
tp795
a(F-7.414222
F57.464167
tp796
aa(lp797
(F-6.712472
F56.575806
tp798
a(F-6.712528
F56.579972
tp799
a(F-6.454222
F56.687472
tp800
a(F-6.712472
F56.575806
tp801
aa(lp802
(F-2.675444
F49.430861
tp803
a(F-2.675417
F49.434167
tp804
a(F-2.505833
F49.50875
tp805
a(F-2.529111
F49.422083
tp806
a(F-2.675444
F49.430861
tp807
aa(lp808
(F-6.0
F57.349583
tp809
a(F-6.002528
F57.348333
tp810
a(F-6.084167
F57.4225
tp811
a(F-5.991694
F57.507083
tp812
a(F-6.0
F57.349583
tp813
aa(lp814
(F-7.515889
F56.999167
tp815
a(F-7.514194
F57.0
tp816
a(F-7.443361
F57.058722
tp817
a(F-7.375806
F56.984972
tp818
a(F-7.558333
F56.950361
tp819
a(F-7.515889
F56.999167
tp820
aa(lp821
(F-2.704083
F59.197444
tp822
a(F-2.704056
F59.199139
tp823
a(F-2.616722
F59.294556
tp824
a(F-2.417556
F59.310861
tp825
a(F-2.704083
F59.197444
tp826
aa(lp827
(F-3.0
F59.330389
tp828
a(F-2.999667
F59.330583
tp829
a(F-2.881722
F59.227889
tp830
a(F-3.0
F59.330389
tp831
aa(lp832
(F-3.0
F59.178694
tp833
a(F-2.999778
F59.178667
tp834
a(F-2.998333
F59.127056
tp835
a(F-3.115861
F59.160806
tp836
a(F-3.0
F59.178694
tp837
aa(lp838
(F-0.94925
F60.611667
tp839
a(F-0.949222
F60.614111
tp840
a(F-0.764222
F60.600833
tp841
a(F-0.890083
F60.562028
tp842
a(F-0.94925
F60.611667
tp843
aa(lp844
(F-6.280889
F56.035833
tp845
a(F-6.280889
F56.0375
tp846
a(F-6.148306
F56.132917
tp847
a(F-6.280889
F56.035833
tp848
aa(lp849
(F-4.704222
F53.305806
tp850
a(F-4.704222
F53.308306
tp851
a(F-4.555833
F53.245833
tp852
a(F-4.704222
F53.305806
tp853
aa(lp854
(F-2.692361
F59.078222
tp855
a(F-2.692556
F59.081639
tp856
a(F-2.675028
F59.15375
tp857
a(F-2.539333
F59.123333
tp858
a(F-2.692361
F59.078222
tp859
aa(lp860
(F-9.832556
F53.1375
tp861
a(F-9.832556
F53.139944
tp862
a(F-9.639194
F53.089944
tp863
a(F-9.832556
F53.1375
tp864
aa(lp865
(F-6.209222
F56.888333
tp866
a(F-6.20925
F56.890833
tp867
a(F-6.136694
F56.943694
tp868
a(F-6.209222
F56.888333
tp869
aa(lp870
(F-2.9375
F59.030889
tp871
a(F-2.9375
F59.034083
tp872
a(F-2.800889
F59.086639
tp873
a(F-2.81175
F59.023694
tp874
a(F-2.9375
F59.030889
tp875
aa(lp876
(F-2.82925
F59.175806
tp877
a(F-2.829167
F59.191611
tp878
a(F-2.758389
F59.250417
tp879
a(F-2.740833
F59.144139
tp880
a(F-2.82925
F59.175806
tp881
aa(lp882
(F-1.150917
F60.173278
tp883
a(F-1.150861
F60.174139
tp884
a(F-1.073306
F60.102889
tp885
a(F-1.150917
F60.173278
tp886
aa(lp887
(F-10.434167
F51.880833
tp888
a(F-10.434222
F51.8825
tp889
a(F-10.290806
F51.925833
tp890
a(F-10.434167
F51.880833
tp891
aa(lp892
(F-6.0
F57.287944
tp893
a(F-6.001694
F57.288722
tp894
a(F-5.915861
F57.300833
tp895
a(F-6.0
F57.287944
tp896
aa(lp897
(F-1.115861
F50.799972
tp898
a(F-1.114194
F50.800806
tp899
a(F-1.030806
F50.786639
tp900
a(F-1.115861
F50.799972
tp901
aa(lp902
(F-5.600861
F56.461667
tp903
a(F-5.600861
F56.463333
tp904
a(F-5.429167
F56.560806
tp905
a(F-5.600861
F56.461667
tp906
aa(lp907
(F-9.725806
F53.260806
tp908
a(F-9.724194
F53.261667
tp909
a(F-9.64925
F53.2275
tp910
a(F-9.725806
F53.260806
tp911
aa(lp912
(F-1.000889
F60.37
tp913
a(F-0.900889
F60.3825
tp914
a(F-1.0
F60.369639
tp915
a(F-1.000889
F60.37
tp916
aa(lp917
(F-9.925917
F51.616667
tp918
a(F-9.925833
F51.618333
tp919
a(F-9.785806
F51.645778
tp920
a(F-9.925917
F51.616667
tp921
aa(lp922
(F-6.270833
F56.475861
tp923
a(F-6.270861
F56.478306
tp924
a(F-6.14425
F56.470833
tp925
a(F-6.270833
F56.475861
tp926
aa(lp927
(F-1.006667
F50.782056
tp928
a(F-1.008361
F50.782889
tp929
a(F-0.956722
F50.829583
tp930
a(F-1.006667
F50.782056
tp931
aa(lp932
(F-6.285917
F55.292472
tp933
a(F-6.285861
F55.295
tp934
a(F-6.1675
F55.299139
tp935
a(F-6.285917
F55.292472
tp936
aa(lp937
(F-5.754167
F56.166639
tp938
a(F-5.754194
F56.171611
tp939
a(F-5.675806
F56.191667
tp940
a(F-5.754167
F56.166639
tp941
aa(lp942
(F-5.777583
F55.669972
tp943
a(F-5.777556
F55.676667
tp944
a(F-5.720083
F55.727889
tp945
a(F-5.777583
F55.669972
tp946
aa(lp947
(F-3.275833
F54.129972
tp948
a(F-3.275833
F54.143333
tp949
a(F-3.171694
F54.044556
tp950
a(F-3.275833
F54.129972
tp951
aa(lp952
(F-5.667556
F56.217472
tp953
a(F-5.667583
F56.220833
tp954
a(F-5.638417
F56.270361
tp955
a(F-5.667556
F56.217472
tp956
aa(lp957
(F-5.592556
F56.380806
tp958
a(F-5.5925
F56.381667
tp959
a(F-5.495861
F56.424972
tp960
a(F-5.592556
F56.380806
tp961
aa(lp962
(F-4.954167
F55.746667
tp963
a(F-4.954139
F55.7525
tp964
a(F-4.901722
F55.792083
tp965
a(F-4.954167
F55.746667
tp966
aa(lp967
(F-6.609194
F57.049972
tp968
a(F-6.609167
F57.0525
tp969
a(F-6.485861
F57.064972
tp970
a(F-6.609194
F57.049972
tp971
aa(lp972
(F-7.575917
F56.933333
tp973
a(F-7.575889
F56.934139
tp974
a(F-7.48925
F56.929139
tp975
a(F-7.575917
F56.933333
tp976
aa(lp977
(F-3.149167
F58.826639
tp978
a(F-3.149194
F58.831667
tp979
a(F-3.064194
F58.848333
tp980
a(F-3.149167
F58.826639
tp981
aa(lp982
(F-10.260889
F53.622472
tp983
a(F-10.260861
F53.625
tp984
a(F-10.177583
F53.616639
tp985
a(F-10.260889
F53.622472
tp986
aa(lp987
(F-7.407556
F57.544194
tp988
a(F-7.407556
F57.549139
tp989
a(F-7.355
F57.497889
tp990
a(F-7.407556
F57.544194
tp991
aa(lp992
(F-9.712583
F53.294972
tp993
a(F-9.712528
F53.298278
tp994
a(F-9.634194
F53.296667
tp995
a(F-9.712583
F53.294972
tp996
aa(lp997
(F-2.235389
F49.706667
tp998
a(F-2.235361
F49.707528
tp999
a(F-2.1595
F49.729167
tp1000
a(F-2.235389
F49.706667
tp1001
aa(lp1002
(F-7.275833
F57.498306
tp1003
a(F-7.273417
F57.499583
tp1004
a(F-7.200833
F57.475861
tp1005
a(F-7.275833
F57.498306
tp1006
aa(lp1007
(F-9.5325
F51.426639
tp1008
a(F-9.532528
F51.4275
tp1009
a(F-9.465806
F51.450861
tp1010
a(F-9.5325
F51.426639
tp1011
aa(lp1012
(F-10.244167
F51.581639
tp1013
a(F-10.24175
F51.582917
tp1014
a(F-10.160833
F51.605833
tp1015
a(F-10.244167
F51.581639
tp1016
aa(lp1017
(F-10.582472
F52.069944
tp1018
a(F-10.5825
F52.070806
tp1019
a(F-10.510861
F52.102472
tp1020
a(F-10.582472
F52.069944
tp1021
aa.