(dp0
S'12345678'
p1
(dp2
S'balance'
p3
F62.690000000000005
sS'pin'
p4
S'4321'
p5
sS'transactions'
p6
(lp7
(dp8
S'date'
p9
S'27-02-2007, 14:02:58'
p10
sS'amount'
p11
F34.560000000000002
sS'nature'
p12
S'd'
p13
sa(dp14
g9
S'27-02-2007, 14:03:17'
p15
sg11
F10.0
sg12
S'w'
p16
sa(dp17
g9
S'27-02-2007, 14:03:33'
p18
sg11
F12.449999999999999
sg12
g16
sa(dp19
S'date'
p20
S'27-02-2007, 15:35:45'
p21
sS'amount'
p22
F12.0
sS'nature'
p23
S'd'
p24
sa(dp25
g20
S'27-02-2007, 15:35:53'
p26
sg22
F5.7599999999999998
sg23
S'w'
p27
sa(dp28
g20
S'27-02-2007, 15:36:02'
p29
sg22
F23.0
sg23
g24
sassS'24681357'
p30
(dp31
g3
F100.31999999999999
sg4
S'8888'
p32
sg6
(lp33
ssS'86421357'
p34
(dp35
g3
F33.280000000000001
sg4
S'1357'
p36
sg6
(lp37
(dp38
g20
S'27-02-2007, 15:38:36'
p39
sg22
F10.0
sg23
g27
sassS'98765432'
p40
(dp41
g3
F50.75
sg4
S'2222'
p42
sg6
(lp43
(dp44
g20
S'27-02-2007, 15:38:54'
p45
sg22
F50.75
sg23
g24
sass.